target datalayout = "e-m:e-p270:32:32-p271:32:32-p272:64:64-i64:64-i128:128-f80:128-n8:16:32:64-S128"
target triple = "x86_64-pc-linux-gnu"

%"class.sat::asymm_branch" = type { ptr, %class.params_ref, i64, %class.random_gen, i32, i32, i8, i32, i32, i8, i8, i64, i32, i32, i32, %class.svector, %class.svector, %class.svector.0, %class.svector.0, %class.svector, %class.svector }
%class.params_ref = type { ptr }
%class.random_gen = type { i32 }
%class.svector.0 = type { %class.vector.1 }
%class.vector.1 = type { ptr }
%class.svector = type { %class.vector }
%class.vector = type { ptr }
%struct.sat_asymm_branch_params = type { ptr, %class.params_ref }

@.str.22 = private unnamed_addr constant [4 x i8] c"sat\00", align 1
@.str.23 = private unnamed_addr constant [13 x i8] c"asymm_branch\00", align 1
@.str.24 = private unnamed_addr constant [20 x i8] c"asymm_branch.rounds\00", align 1
@.str.25 = private unnamed_addr constant [19 x i8] c"asymm_branch.delay\00", align 1
@.str.26 = private unnamed_addr constant [21 x i8] c"asymm_branch.sampled\00", align 1
@.str.27 = private unnamed_addr constant [19 x i8] c"asymm_branch.limit\00", align 1
@.str.28 = private unnamed_addr constant [17 x i8] c"asymm_branch.all\00", align 1

; Function Attrs: inlinehint mustprogress nounwind uwtable
define linkonce_odr hidden void @_ZN23sat_asymm_branch_paramsD2Ev(ptr noundef nonnull align 8 dereferenceable(16) %0) unnamed_addr #10 comdat align 2 {
  %2 = alloca ptr, align 8
  store ptr %0, ptr %2, align 8, !tbaa !266
  %3 = load ptr, ptr %2, align 8
  %4 = getelementptr inbounds nuw %struct.sat_asymm_branch_params, ptr %3, i32 0, i32 1
  call void @_ZN10params_refD1Ev(ptr noundef nonnull align 8 dereferenceable(8) %4) #3
  ret void
}

; Function Attrs: mustprogress uwtable
define linkonce_odr hidden noundef zeroext i1 @_ZNK23sat_asymm_branch_params16asymm_branch_allEv(ptr noundef nonnull align 8 dereferenceable(16) %0) #4 comdat align 2 {
  %2 = alloca ptr, align 8
  store ptr %0, ptr %2, align 8, !tbaa !266
  %3 = load ptr, ptr %2, align 8
  %4 = getelementptr inbounds nuw %struct.sat_asymm_branch_params, ptr %3, i32 0, i32 0
  %5 = load ptr, ptr %4, align 8, !tbaa !268
  %6 = getelementptr inbounds nuw %struct.sat_asymm_branch_params, ptr %3, i32 0, i32 1
  %7 = call noundef zeroext i1 @_ZNK10params_ref8get_boolEPKcRKS_b(ptr noundef nonnull align 8 dereferenceable(8) %5, ptr noundef @.str.28, ptr noundef nonnull align 8 dereferenceable(8) %6, i1 noundef zeroext false)
  ret i1 %7
}

; Function Attrs: mustprogress uwtable
define linkonce_odr hidden noundef i32 @_ZNK23sat_asymm_branch_params18asymm_branch_limitEv(ptr noundef nonnull align 8 dereferenceable(16) %0) #4 comdat align 2 {
  %2 = alloca ptr, align 8
  store ptr %0, ptr %2, align 8, !tbaa !266
  %3 = load ptr, ptr %2, align 8
  %4 = getelementptr inbounds nuw %struct.sat_asymm_branch_params, ptr %3, i32 0, i32 0
  %5 = load ptr, ptr %4, align 8, !tbaa !268
  %6 = getelementptr inbounds nuw %struct.sat_asymm_branch_params, ptr %3, i32 0, i32 1
  %7 = call noundef i32 @_ZNK10params_ref8get_uintEPKcRKS_j(ptr noundef nonnull align 8 dereferenceable(8) %5, ptr noundef @.str.27, ptr noundef nonnull align 8 dereferenceable(8) %6, i32 noundef 100000000)
  ret i32 %7
}

; Function Attrs: mustprogress uwtable
define linkonce_odr hidden noundef zeroext i1 @_ZNK23sat_asymm_branch_params20asymm_branch_sampledEv(ptr noundef nonnull align 8 dereferenceable(16) %0) #4 comdat align 2 {
  %2 = alloca ptr, align 8
  store ptr %0, ptr %2, align 8, !tbaa !266
  %3 = load ptr, ptr %2, align 8
  %4 = getelementptr inbounds nuw %struct.sat_asymm_branch_params, ptr %3, i32 0, i32 0
  %5 = load ptr, ptr %4, align 8, !tbaa !268
  %6 = getelementptr inbounds nuw %struct.sat_asymm_branch_params, ptr %3, i32 0, i32 1
  %7 = call noundef zeroext i1 @_ZNK10params_ref8get_boolEPKcRKS_b(ptr noundef nonnull align 8 dereferenceable(8) %5, ptr noundef @.str.26, ptr noundef nonnull align 8 dereferenceable(8) %6, i1 noundef zeroext true)
  ret i1 %7
}

; Function Attrs: mustprogress uwtable
define linkonce_odr hidden noundef i32 @_ZNK23sat_asymm_branch_params18asymm_branch_delayEv(ptr noundef nonnull align 8 dereferenceable(16) %0) #4 comdat align 2 {
  %2 = alloca ptr, align 8
  store ptr %0, ptr %2, align 8, !tbaa !266
  %3 = load ptr, ptr %2, align 8
  %4 = getelementptr inbounds nuw %struct.sat_asymm_branch_params, ptr %3, i32 0, i32 0
  %5 = load ptr, ptr %4, align 8, !tbaa !268
  %6 = getelementptr inbounds nuw %struct.sat_asymm_branch_params, ptr %3, i32 0, i32 1
  %7 = call noundef i32 @_ZNK10params_ref8get_uintEPKcRKS_j(ptr noundef nonnull align 8 dereferenceable(8) %5, ptr noundef @.str.25, ptr noundef nonnull align 8 dereferenceable(8) %6, i32 noundef 1)
  ret i32 %7
}

; Function Attrs: mustprogress uwtable
define linkonce_odr hidden noundef i32 @_ZNK23sat_asymm_branch_params19asymm_branch_roundsEv(ptr noundef nonnull align 8 dereferenceable(16) %0) #4 comdat align 2 {
  %2 = alloca ptr, align 8
  store ptr %0, ptr %2, align 8, !tbaa !266
  %3 = load ptr, ptr %2, align 8
  %4 = getelementptr inbounds nuw %struct.sat_asymm_branch_params, ptr %3, i32 0, i32 0
  %5 = load ptr, ptr %4, align 8, !tbaa !268
  %6 = getelementptr inbounds nuw %struct.sat_asymm_branch_params, ptr %3, i32 0, i32 1
  %7 = call noundef i32 @_ZNK10params_ref8get_uintEPKcRKS_j(ptr noundef nonnull align 8 dereferenceable(8) %5, ptr noundef @.str.24, ptr noundef nonnull align 8 dereferenceable(8) %6, i32 noundef 2)
  ret i32 %7
}

; Function Attrs: mustprogress uwtable
define linkonce_odr hidden noundef zeroext i1 @_ZNK23sat_asymm_branch_params12asymm_branchEv(ptr noundef nonnull align 8 dereferenceable(16) %0) #4 comdat align 2 {
  %2 = alloca ptr, align 8
  store ptr %0, ptr %2, align 8, !tbaa !266
  %3 = load ptr, ptr %2, align 8
  %4 = getelementptr inbounds nuw %struct.sat_asymm_branch_params, ptr %3, i32 0, i32 0
  %5 = load ptr, ptr %4, align 8, !tbaa !268
  %6 = getelementptr inbounds nuw %struct.sat_asymm_branch_params, ptr %3, i32 0, i32 1
  %7 = call noundef zeroext i1 @_ZNK10params_ref8get_boolEPKcRKS_b(ptr noundef nonnull align 8 dereferenceable(8) %5, ptr noundef @.str.23, ptr noundef nonnull align 8 dereferenceable(8) %6, i1 noundef zeroext true)
  ret i1 %7
}

; Function Attrs: mustprogress uwtable
define linkonce_odr hidden void @_ZN23sat_asymm_branch_paramsC2ERK10params_ref(ptr noundef nonnull align 8 dereferenceable(16) %0, ptr noundef nonnull align 8 dereferenceable(8) %1) unnamed_addr #4 comdat align 2 {
  %3 = alloca ptr, align 8
  %4 = alloca ptr, align 8
  store ptr %0, ptr %3, align 8, !tbaa !266
  store ptr %1, ptr %4, align 8, !tbaa !10
  %5 = load ptr, ptr %3, align 8
  %6 = getelementptr inbounds nuw %struct.sat_asymm_branch_params, ptr %5, i32 0, i32 0
  %7 = load ptr, ptr %4, align 8, !tbaa !10
  store ptr %7, ptr %6, align 8, !tbaa !10
  %8 = getelementptr inbounds nuw %struct.sat_asymm_branch_params, ptr %5, i32 0, i32 1
  call void @_ZN7gparams10get_moduleEPKc(ptr dead_on_unwind writable sret(%class.params_ref) align 8 %8, ptr noundef @.str.22)
  ret void
}

; Function Attrs: mustprogress uwtable
define hidden void @_ZN3sat12asymm_branch11updt_paramsERK10params_ref(ptr noundef nonnull align 8 dereferenceable(128) %0, ptr noundef nonnull align 8 dereferenceable(8) %1) #4 align 2 personality ptr @__gxx_personality_v0 {
  %3 = alloca ptr, align 8
  %4 = alloca ptr, align 8
  %5 = alloca %struct.sat_asymm_branch_params, align 8
  %6 = alloca ptr, align 8
  %7 = alloca i32, align 4
  store ptr %0, ptr %3, align 8, !tbaa !3
  store ptr %1, ptr %4, align 8, !tbaa !10
  %8 = load ptr, ptr %3, align 8
  call void @llvm.lifetime.start.p0(i64 16, ptr %5) #3
  %9 = load ptr, ptr %4, align 8, !tbaa !10
  call void @_ZN23sat_asymm_branch_paramsC2ERK10params_ref(ptr noundef nonnull align 8 dereferenceable(16) %5, ptr noundef nonnull align 8 dereferenceable(8) %9)
  %10 = invoke noundef zeroext i1 @_ZNK23sat_asymm_branch_params12asymm_branchEv(ptr noundef nonnull align 8 dereferenceable(16) %5)
          to label %11 unwind label %37

11:                                               ; preds = %2
  %12 = getelementptr inbounds nuw %"class.sat::asymm_branch", ptr %8, i32 0, i32 6
  %13 = zext i1 %10 to i8
  store i8 %13, ptr %12, align 4, !tbaa !36
  %14 = invoke noundef i32 @_ZNK23sat_asymm_branch_params19asymm_branch_roundsEv(ptr noundef nonnull align 8 dereferenceable(16) %5)
          to label %15 unwind label %37

15:                                               ; preds = %11
  %16 = getelementptr inbounds nuw %"class.sat::asymm_branch", ptr %8, i32 0, i32 7
  store i32 %14, ptr %16, align 8, !tbaa !37
  %17 = invoke noundef i32 @_ZNK23sat_asymm_branch_params18asymm_branch_delayEv(ptr noundef nonnull align 8 dereferenceable(16) %5)
          to label %18 unwind label %37

18:                                               ; preds = %15
  %19 = getelementptr inbounds nuw %"class.sat::asymm_branch", ptr %8, i32 0, i32 8
  store i32 %17, ptr %19, align 4, !tbaa !38
  %20 = invoke noundef zeroext i1 @_ZNK23sat_asymm_branch_params20asymm_branch_sampledEv(ptr noundef nonnull align 8 dereferenceable(16) %5)
          to label %21 unwind label %37

21:                                               ; preds = %18
  %22 = getelementptr inbounds nuw %"class.sat::asymm_branch", ptr %8, i32 0, i32 9
  %23 = zext i1 %20 to i8
  store i8 %23, ptr %22, align 8, !tbaa !39
  %24 = invoke noundef i32 @_ZNK23sat_asymm_branch_params18asymm_branch_limitEv(ptr noundef nonnull align 8 dereferenceable(16) %5)
          to label %25 unwind label %37

25:                                               ; preds = %21
  %26 = zext i32 %24 to i64
  %27 = getelementptr inbounds nuw %"class.sat::asymm_branch", ptr %8, i32 0, i32 11
  store i64 %26, ptr %27, align 8, !tbaa !40
  %28 = invoke noundef zeroext i1 @_ZNK23sat_asymm_branch_params16asymm_branch_allEv(ptr noundef nonnull align 8 dereferenceable(16) %5)
          to label %29 unwind label %37

29:                                               ; preds = %25
  %30 = getelementptr inbounds nuw %"class.sat::asymm_branch", ptr %8, i32 0, i32 10
  %31 = zext i1 %28 to i8
  store i8 %31, ptr %30, align 1, !tbaa !41
  %32 = getelementptr inbounds nuw %"class.sat::asymm_branch", ptr %8, i32 0, i32 11
  %33 = load i64, ptr %32, align 8, !tbaa !40
  %34 = icmp sgt i64 %33, 4294967295
  br i1 %34, label %35, label %41

35:                                               ; preds = %29
  %36 = getelementptr inbounds nuw %"class.sat::asymm_branch", ptr %8, i32 0, i32 11
  store i64 4294967295, ptr %36, align 8, !tbaa !40
  br label %41

37:                                               ; preds = %25, %21, %18, %15, %11, %2
  %38 = landingpad { ptr, i32 }
          cleanup
  %39 = extractvalue { ptr, i32 } %38, 0
  store ptr %39, ptr %6, align 8
  %40 = extractvalue { ptr, i32 } %38, 1
  store i32 %40, ptr %7, align 4
  call void @_ZN23sat_asymm_branch_paramsD2Ev(ptr noundef nonnull align 8 dereferenceable(16) %5) #3
  call void @llvm.lifetime.end.p0(i64 16, ptr %5) #3
  br label %42

41:                                               ; preds = %35, %29
  call void @_ZN23sat_asymm_branch_paramsD2Ev(ptr noundef nonnull align 8 dereferenceable(16) %5) #3
  call void @llvm.lifetime.end.p0(i64 16, ptr %5) #3
  ret void

42:                                               ; preds = %37
  %43 = load ptr, ptr %6, align 8
  %44 = load i32, ptr %7, align 4
  %45 = insertvalue { ptr, i32 } poison, ptr %43, 0
  %46 = insertvalue { ptr, i32 } %45, i32 %44, 1
  resume { ptr, i32 } %46
}