; Function Attrs: mustprogress uwtable
define hidden void @_ZN3sat12asymm_branch11updt_paramsERK10params_ref(ptr noundef nonnull align 8 captures(none) dereferenceable(128) %0, ptr noundef nonnull align 8 dereferenceable(8) %1) local_unnamed_addr #3 align 2 personality ptr @__gxx_personality_v0 {
  %3 = alloca %struct.sat_asymm_branch_params, align 8
  call void @llvm.lifetime.start.p0(i64 16, ptr nonnull %3) #25
  store ptr %1, ptr %3, align 8, !tbaa !28
  %4 = getelementptr inbounds nuw i8, ptr %3, i64 8
  call void @_ZN7gparams10get_moduleEPKc(ptr dead_on_unwind nonnull writable sret(%class.params_ref) align 8 %4, ptr noundef nonnull @.str.22)
  %5 = load ptr, ptr %3, align 8, !tbaa !30
  %6 = invoke noundef zeroext i1 @_ZNK10params_ref8get_boolEPKcRKS_b(ptr noundef nonnull align 8 dereferenceable(8) %5, ptr noundef nonnull @.str.23, ptr noundef nonnull align 8 dereferenceable(8) %4, i1 noundef zeroext true)
          to label %_ZNK23sat_asymm_branch_params12asymm_branchEv.exit unwind label %30

_ZNK23sat_asymm_branch_params12asymm_branchEv.exit: ; preds = %2
  %7 = getelementptr inbounds nuw i8, ptr %0, i64 36
  %8 = zext i1 %6 to i8
  store i8 %8, ptr %7, align 4, !tbaa !32
  %9 = load ptr, ptr %3, align 8, !tbaa !30
  %10 = invoke noundef i32 @_ZNK10params_ref8get_uintEPKcRKS_j(ptr noundef nonnull align 8 dereferenceable(8) %9, ptr noundef nonnull @.str.24, ptr noundef nonnull align 8 dereferenceable(8) %4, i32 noundef 2)
          to label %_ZNK23sat_asymm_branch_params19asymm_branch_roundsEv.exit unwind label %30

_ZNK23sat_asymm_branch_params19asymm_branch_roundsEv.exit: ; preds = %_ZNK23sat_asymm_branch_params12asymm_branchEv.exit
  %11 = getelementptr inbounds nuw i8, ptr %0, i64 40
  store i32 %10, ptr %11, align 8, !tbaa !33
  %12 = load ptr, ptr %3, align 8, !tbaa !30
  %13 = invoke noundef i32 @_ZNK10params_ref8get_uintEPKcRKS_j(ptr noundef nonnull align 8 dereferenceable(8) %12, ptr noundef nonnull @.str.25, ptr noundef nonnull align 8 dereferenceable(8) %4, i32 noundef 1)
          to label %_ZNK23sat_asymm_branch_params18asymm_branch_delayEv.exit unwind label %30

_ZNK23sat_asymm_branch_params18asymm_branch_delayEv.exit: ; preds = %_ZNK23sat_asymm_branch_params19asymm_branch_roundsEv.exit
  %14 = getelementptr inbounds nuw i8, ptr %0, i64 44
  store i32 %13, ptr %14, align 4, !tbaa !34
  %15 = load ptr, ptr %3, align 8, !tbaa !30
  %16 = invoke noundef zeroext i1 @_ZNK10params_ref8get_boolEPKcRKS_b(ptr noundef nonnull align 8 dereferenceable(8) %15, ptr noundef nonnull @.str.26, ptr noundef nonnull align 8 dereferenceable(8) %4, i1 noundef zeroext true)
          to label %_ZNK23sat_asymm_branch_params20asymm_branch_sampledEv.exit unwind label %30

_ZNK23sat_asymm_branch_params20asymm_branch_sampledEv.exit: ; preds = %_ZNK23sat_asymm_branch_params18asymm_branch_delayEv.exit
  %17 = getelementptr inbounds nuw i8, ptr %0, i64 48
  %18 = zext i1 %16 to i8
  store i8 %18, ptr %17, align 8, !tbaa !35
  %19 = load ptr, ptr %3, align 8, !tbaa !30
  %20 = invoke noundef i32 @_ZNK10params_ref8get_uintEPKcRKS_j(ptr noundef nonnull align 8 dereferenceable(8) %19, ptr noundef nonnull @.str.27, ptr noundef nonnull align 8 dereferenceable(8) %4, i32 noundef 100000000)
          to label %_ZNK23sat_asymm_branch_params18asymm_branch_limitEv.exit unwind label %30

_ZNK23sat_asymm_branch_params18asymm_branch_limitEv.exit: ; preds = %_ZNK23sat_asymm_branch_params20asymm_branch_sampledEv.exit
  %21 = zext i32 %20 to i64
  %22 = getelementptr inbounds nuw i8, ptr %0, i64 56
  store i64 %21, ptr %22, align 8, !tbaa !36
  %23 = load ptr, ptr %3, align 8, !tbaa !30
  %24 = invoke noundef zeroext i1 @_ZNK10params_ref8get_boolEPKcRKS_b(ptr noundef nonnull align 8 dereferenceable(8) %23, ptr noundef nonnull @.str.28, ptr noundef nonnull align 8 dereferenceable(8) %4, i1 noundef zeroext false)
          to label %_ZNK23sat_asymm_branch_params16asymm_branch_allEv.exit unwind label %30

_ZNK23sat_asymm_branch_params16asymm_branch_allEv.exit: ; preds = %_ZNK23sat_asymm_branch_params18asymm_branch_limitEv.exit
  %25 = getelementptr inbounds nuw i8, ptr %0, i64 49
  %26 = zext i1 %24 to i8
  store i8 %26, ptr %25, align 1, !tbaa !37
  %27 = load i64, ptr %22, align 8, !tbaa !36
  %28 = icmp sgt i64 %27, 4294967295
  br i1 %28, label %29, label %32

29:                                               ; preds = %_ZNK23sat_asymm_branch_params16asymm_branch_allEv.exit
  store i64 4294967295, ptr %22, align 8, !tbaa !36
  br label %32

30:                                               ; preds = %_ZNK23sat_asymm_branch_params18asymm_branch_limitEv.exit, %_ZNK23sat_asymm_branch_params20asymm_branch_sampledEv.exit, %_ZNK23sat_asymm_branch_params18asymm_branch_delayEv.exit, %_ZNK23sat_asymm_branch_params19asymm_branch_roundsEv.exit, %_ZNK23sat_asymm_branch_params12asymm_branchEv.exit, %2
  %31 = landingpad { ptr, i32 }
          cleanup
  call void @_ZN10params_refD1Ev(ptr noundef nonnull align 8 dereferenceable(8) %4) #25
  call void @llvm.lifetime.end.p0(i64 16, ptr nonnull %3) #25
  resume { ptr, i32 } %31

32:                                               ; preds = %29, %_ZNK23sat_asymm_branch_params16asymm_branch_allEv.exit
  call void @_ZN10params_refD1Ev(ptr noundef nonnull align 8 dereferenceable(8) %4) #25
  call void @llvm.lifetime.end.p0(i64 16, ptr nonnull %3) #25
  ret void
}